target datalayout = "e-m:e-p270:32:32-p271:32:32-p272:64:64-i64:64-i128:128-f80:128-n8:16:32:64-S128"
target triple = "x86_64-pc-linux-gnu"

%class.DefaultProgramGenerator = type { %class.AbsProgramGenerator, i32, ptr, i64, ptr }
%class.AbsProgramGenerator = type { ptr }

; Function Attrs: mustprogress uwtable
define dso_local void @_ZN23DefaultProgramGeneratorC2EiPPcm(ptr noundef nonnull align 8 dereferenceable(40) %0, i32 noundef %1, ptr noundef %2, i64 noundef %3) unnamed_addr #4 align 2 {
  %5 = alloca ptr, align 8
  %6 = alloca i32, align 4
  %7 = alloca ptr, align 8
  %8 = alloca i64, align 8
  store ptr %0, ptr %5, align 8
  store i32 %1, ptr %6, align 4
  store ptr %2, ptr %7, align 8
  store i64 %3, ptr %8, align 8
  %9 = load ptr, ptr %5, align 8
  call void @_ZN19AbsProgramGeneratorC2Ev(ptr noundef nonnull align 8 dereferenceable(8) %9)
  store ptr getelementptr inbounds ({ [8 x ptr] }, ptr @_ZTV23DefaultProgramGenerator, i32 0, i32 0, i32 2), ptr %9, align 8
  %10 = getelementptr inbounds %class.DefaultProgramGenerator, ptr %9, i32 0, i32 1
  %11 = load i32, ptr %6, align 4
  store i32 %11, ptr %10, align 8
  %12 = getelementptr inbounds %class.DefaultProgramGenerator, ptr %9, i32 0, i32 2
  %13 = load ptr, ptr %7, align 8
  store ptr %13, ptr %12, align 8
  %14 = getelementptr inbounds %class.DefaultProgramGenerator, ptr %9, i32 0, i32 3
  %15 = load i64, ptr %8, align 8
  store i64 %15, ptr %14, align 8
  %16 = getelementptr inbounds %class.DefaultProgramGenerator, ptr %9, i32 0, i32 4
  store ptr null, ptr %16, align 8
  ret void
}